; Function Attrs: nounwind uwtable
define internal void @cf2_builder_lineTo(ptr noundef readonly captures(none) %0, ptr noundef readonly captures(none) %1) #0 {
  %3 = getelementptr inbounds nuw i8, ptr %0, i64 56
  %4 = load ptr, ptr %3, align 8
  %5 = getelementptr inbounds nuw i8, ptr %4, i64 88
  %6 = load i8, ptr %5, align 8
  %.not = icmp eq i8 %6, 0
  br i1 %.not, label %7, label %17

7:                                                ; preds = %2
  %8 = load i64, ptr %1, align 8
  %9 = getelementptr inbounds nuw i8, ptr %1, i64 8
  %10 = load i64, ptr %9, align 8
  %11 = tail call fastcc i32 @ps_builder_start_point(ptr noundef nonnull %4, i64 noundef %8, i64 noundef %10)
  %.not17 = icmp eq i32 %11, 0
  br i1 %.not17, label %17, label %12

12:                                               ; preds = %7
  %13 = getelementptr inbounds nuw i8, ptr %0, i64 48
  %14 = load ptr, ptr %13, align 8
  %15 = load i32, ptr %14, align 4
  %.not18 = icmp eq i32 %15, 0
  br i1 %.not18, label %16, label %56

16:                                               ; preds = %12
  store i32 %11, ptr %14, align 4
  br label %56

17:                                               ; preds = %7, %2
  %18 = getelementptr inbounds nuw i8, ptr %1, i64 16
  %19 = load i64, ptr %18, align 8
  %20 = getelementptr inbounds nuw i8, ptr %1, i64 24
  %21 = load i64, ptr %20, align 8
  %22 = getelementptr i8, ptr %4, i64 24
  %.val.i = load ptr, ptr %22, align 8
  %23 = getelementptr inbounds nuw i8, ptr %.val.i, i64 26
  %24 = load i16, ptr %23, align 2
  %25 = zext i16 %24 to i32
  %26 = getelementptr inbounds nuw i8, ptr %.val.i, i64 98
  %27 = load i16, ptr %26, align 2
  %28 = zext i16 %27 to i32
  %29 = add nuw nsw i32 %25, 1
  %30 = add nuw nsw i32 %29, %28
  %31 = getelementptr inbounds nuw i8, ptr %.val.i, i64 8
  %32 = load i32, ptr %31, align 8
  %.not.i.i = icmp ugt i32 %30, %32
  br i1 %.not.i.i, label %ps_builder_check_points.exit.i, label %ps_builder_check_points.exit.thread.i

ps_builder_check_points.exit.i:                   ; preds = %17
  %33 = tail call i32 @FT_GlyphLoader_CheckPoints(ptr noundef nonnull %.val.i, i32 noundef 1, i32 noundef 0) #20
  %.not.i = icmp eq i32 %33, 0
  br i1 %.not.i, label %ps_builder_check_points.exit.thread.i, label %ps_builder_add_point1.exit

ps_builder_check_points.exit.thread.i:            ; preds = %ps_builder_check_points.exit.i, %17
  %34 = getelementptr i8, ptr %4, i64 40
  %.val5.i = load ptr, ptr %34, align 8
  %35 = getelementptr i8, ptr %4, i64 89
  %.val6.i = load i8, ptr %35, align 1
  %.not.i7.i = icmp eq i8 %.val6.i, 0
  br i1 %.not.i7.i, label %ps_builder_add_point1.exit.thread, label %36

36:                                               ; preds = %ps_builder_check_points.exit.thread.i
  %37 = getelementptr inbounds nuw i8, ptr %.val5.i, i64 8
  %38 = load ptr, ptr %37, align 8
  %39 = getelementptr inbounds nuw i8, ptr %.val5.i, i64 2
  %40 = load i16, ptr %39, align 2
  %41 = zext i16 %40 to i64
  %42 = getelementptr inbounds nuw %struct.FT_Vector_, ptr %38, i64 %41
  %43 = getelementptr inbounds nuw i8, ptr %.val5.i, i64 16
  %44 = load ptr, ptr %43, align 8
  %45 = getelementptr inbounds nuw i8, ptr %44, i64 %41
  %46 = ashr i64 %19, 10
  store i64 %46, ptr %42, align 8
  %47 = ashr i64 %21, 10
  %48 = getelementptr inbounds nuw i8, ptr %42, i64 8
  store i64 %47, ptr %48, align 8
  store i8 1, ptr %45, align 1
  br label %ps_builder_add_point1.exit.thread

ps_builder_add_point1.exit.thread:                ; preds = %ps_builder_check_points.exit.thread.i, %36
  %49 = getelementptr inbounds nuw i8, ptr %.val5.i, i64 2
  %50 = load i16, ptr %49, align 2
  %51 = add i16 %50, 1
  store i16 %51, ptr %49, align 2
  br label %56

ps_builder_add_point1.exit:                       ; preds = %ps_builder_check_points.exit.i
  %52 = getelementptr inbounds nuw i8, ptr %0, i64 48
  %53 = load ptr, ptr %52, align 8
  %54 = load i32, ptr %53, align 4
  %.not20 = icmp eq i32 %54, 0
  br i1 %.not20, label %55, label %56

55:                                               ; preds = %ps_builder_add_point1.exit
  store i32 %33, ptr %53, align 4
  br label %56

56:                                               ; preds = %ps_builder_add_point1.exit.thread, %ps_builder_add_point1.exit, %55, %12, %16
  ret void
}